target datalayout = "e-m:e-p270:32:32-p271:32:32-p272:64:64-i64:64-i128:128-f80:128-n8:16:32:64-S128"
target triple = "x86_64-pc-linux-gnu"

@hf_edonkey_file_hash = internal global i32 0, align 4
@hf_edonkey_part_count = internal global i32 0, align 4
@hf_edonkey_file_status = internal global i32 0, align 4
@hf_emule_source_count = internal global i32 0, align 4
@hf_edonkey_emule_queue_ranking = internal global i32 0, align 4

; Function Attrs: null_pointer_is_valid sspstrong uwtable
define internal i32 @dissect_edonkey_file_status(ptr noundef %0, ptr noundef %1, i32 noundef %2, ptr noundef %3) #0 {
  %5 = alloca ptr, align 8
  %6 = alloca ptr, align 8
  %7 = alloca i32, align 4
  %8 = alloca ptr, align 8
  %9 = alloca i16, align 2
  %10 = alloca i16, align 2
  store ptr %0, ptr %5, align 8
  store ptr %1, ptr %6, align 8
  store i32 %2, ptr %7, align 4
  store ptr %3, ptr %8, align 8
  call void @llvm.lifetime.start.p0(i64 2, ptr %9) #6
  call void @llvm.lifetime.start.p0(i64 2, ptr %10) #6
  %11 = load ptr, ptr %5, align 8
  %12 = load i32, ptr %7, align 4
  %13 = call zeroext i16 @tvb_get_letohs(ptr noundef %11, i32 noundef %12)
  store i16 %13, ptr %9, align 2
  %14 = load i16, ptr %9, align 2
  %15 = zext i16 %14 to i32
  %16 = add i32 %15, 7
  %17 = sdiv i32 %16, 8
  %18 = trunc i32 %17 to i16
  store i16 %18, ptr %10, align 2
  %19 = load ptr, ptr %8, align 8
  %20 = load i32, ptr @hf_edonkey_part_count, align 4
  %21 = load ptr, ptr %5, align 8
  %22 = load i32, ptr %7, align 4
  %23 = load i16, ptr %9, align 2
  %24 = zext i16 %23 to i32
  %25 = call ptr @proto_tree_add_uint(ptr noundef %19, i32 noundef %20, ptr noundef %21, i32 noundef %22, i32 noundef 2, i32 noundef %24)
  %26 = load i16, ptr %9, align 2
  %27 = zext i16 %26 to i32
  %28 = icmp sgt i32 %27, 0
  br i1 %28, label %29, label %38

29:                                               ; preds = %4
  %30 = load ptr, ptr %8, align 8
  %31 = load i32, ptr @hf_edonkey_file_status, align 4
  %32 = load ptr, ptr %5, align 8
  %33 = load i32, ptr %7, align 4
  %34 = add i32 %33, 2
  %35 = load i16, ptr %10, align 2
  %36 = zext i16 %35 to i32
  %37 = call ptr @proto_tree_add_item(ptr noundef %30, i32 noundef %31, ptr noundef %32, i32 noundef %34, i32 noundef %36, i32 noundef 0)
  br label %38

38:                                               ; preds = %29, %4
  %39 = load i32, ptr %7, align 4
  %40 = add i32 %39, 2
  %41 = load i16, ptr %10, align 2
  %42 = zext i16 %41 to i32
  %43 = add i32 %40, %42
  call void @llvm.lifetime.end.p0(i64 2, ptr %10) #6
  call void @llvm.lifetime.end.p0(i64 2, ptr %9) #6
  ret i32 %43
}

; Function Attrs: null_pointer_is_valid sspstrong uwtable
define internal i32 @dissect_edonkey_file_hash(ptr noundef %0, ptr noundef %1, i32 noundef %2, ptr noundef %3) #0 {
  %5 = alloca ptr, align 8
  %6 = alloca ptr, align 8
  %7 = alloca i32, align 4
  %8 = alloca ptr, align 8
  store ptr %0, ptr %5, align 8
  store ptr %1, ptr %6, align 8
  store i32 %2, ptr %7, align 4
  store ptr %3, ptr %8, align 8
  %9 = load ptr, ptr %8, align 8
  %10 = load i32, ptr @hf_edonkey_file_hash, align 4
  %11 = load ptr, ptr %5, align 8
  %12 = load i32, ptr %7, align 4
  %13 = call ptr @proto_tree_add_item(ptr noundef %9, i32 noundef %10, ptr noundef %11, i32 noundef %12, i32 noundef 16, i32 noundef 0)
  %14 = load i32, ptr %7, align 4
  %15 = add i32 %14, 16
  ret i32 %15
}

; Function Attrs: null_pointer_is_valid sspstrong uwtable
define internal i32 @dissect_emule_udp_message(i8 noundef zeroext %0, ptr noundef %1, ptr noundef %2, i32 noundef %3, i32 noundef %4, ptr noundef %5) #0 {
  %7 = alloca i32, align 4
  %8 = alloca i8, align 1
  %9 = alloca ptr, align 8
  %10 = alloca ptr, align 8
  %11 = alloca i32, align 4
  %12 = alloca i32, align 4
  %13 = alloca ptr, align 8
  %14 = alloca i32, align 4
  %15 = alloca i32, align 4
  %16 = alloca i32, align 4
  store i8 %0, ptr %8, align 1
  store ptr %1, ptr %9, align 8
  store ptr %2, ptr %10, align 8
  store i32 %3, ptr %11, align 4
  store i32 %4, ptr %12, align 4
  store ptr %5, ptr %13, align 8
  call void @llvm.lifetime.start.p0(i64 4, ptr %14) #6
  call void @llvm.lifetime.start.p0(i64 4, ptr %15) #6
  %17 = load ptr, ptr %9, align 8
  %18 = load i32, ptr %11, align 4
  %19 = call i32 @tvb_reported_length_remaining(ptr noundef %17, i32 noundef %18)
  store i32 %19, ptr %15, align 4
  %20 = load i32, ptr %12, align 4
  %21 = icmp slt i32 %20, 0
  br i1 %21, label %26, label %22

22:                                               ; preds = %6
  %23 = load i32, ptr %12, align 4
  %24 = load i32, ptr %15, align 4
  %25 = icmp sgt i32 %23, %24
  br i1 %25, label %26, label %28

26:                                               ; preds = %22, %6
  %27 = load i32, ptr %15, align 4
  store i32 %27, ptr %12, align 4
  br label %28

28:                                               ; preds = %26, %22
  %29 = load i32, ptr %12, align 4
  %30 = icmp sle i32 %29, 0
  br i1 %30, label %31, label %33

31:                                               ; preds = %28
  %32 = load i32, ptr %11, align 4
  store i32 %32, ptr %7, align 4
  store i32 1, ptr %16, align 4
  br label %98

33:                                               ; preds = %28
  %34 = load i32, ptr %11, align 4
  %35 = load i32, ptr %12, align 4
  %36 = add i32 %34, %35
  store i32 %36, ptr %14, align 4
  %37 = load i8, ptr %8, align 1
  %38 = zext i8 %37 to i32
  switch i32 %38, label %88 [
    i32 144, label %39
    i32 145, label %69
  ]

39:                                               ; preds = %33
  %40 = load ptr, ptr %9, align 8
  %41 = load ptr, ptr %10, align 8
  %42 = load i32, ptr %11, align 4
  %43 = load ptr, ptr %13, align 8
  %44 = call i32 @dissect_edonkey_file_hash(ptr noundef %40, ptr noundef %41, i32 noundef %42, ptr noundef %43)
  store i32 %44, ptr %11, align 4
  %45 = load i32, ptr %11, align 4
  %46 = add i32 %45, 2
  %47 = load i32, ptr %14, align 4
  %48 = icmp slt i32 %46, %47
  br i1 %48, label %49, label %55

49:                                               ; preds = %39
  %50 = load ptr, ptr %9, align 8
  %51 = load ptr, ptr %10, align 8
  %52 = load i32, ptr %11, align 4
  %53 = load ptr, ptr %13, align 8
  %54 = call i32 @dissect_edonkey_file_status(ptr noundef %50, ptr noundef %51, i32 noundef %52, ptr noundef %53)
  store i32 %54, ptr %11, align 4
  br label %55

55:                                               ; preds = %49, %39
  %56 = load i32, ptr %14, align 4
  %57 = load i32, ptr %11, align 4
  %58 = add i32 %57, 2
  %59 = icmp eq i32 %56, %58
  br i1 %59, label %60, label %68

60:                                               ; preds = %55
  %61 = load ptr, ptr %13, align 8
  %62 = load i32, ptr @hf_emule_source_count, align 4
  %63 = load ptr, ptr %9, align 8
  %64 = load i32, ptr %11, align 4
  %65 = call ptr @proto_tree_add_item(ptr noundef %61, i32 noundef %62, ptr noundef %63, i32 noundef %64, i32 noundef 2, i32 noundef -2147483648)
  %66 = load i32, ptr %11, align 4
  %67 = add i32 %66, 2
  store i32 %67, ptr %11, align 4
  br label %68

68:                                               ; preds = %60, %55
  br label %96

69:                                               ; preds = %33
  %70 = load i32, ptr %11, align 4
  %71 = add i32 %70, 2
  %72 = load i32, ptr %14, align 4
  %73 = icmp slt i32 %71, %72
  br i1 %73, label %74, label %80

74:                                               ; preds = %69
  %75 = load ptr, ptr %9, align 8
  %76 = load ptr, ptr %10, align 8
  %77 = load i32, ptr %11, align 4
  %78 = load ptr, ptr %13, align 8
  %79 = call i32 @dissect_edonkey_file_status(ptr noundef %75, ptr noundef %76, i32 noundef %77, ptr noundef %78)
  store i32 %79, ptr %11, align 4
  br label %80

80:                                               ; preds = %74, %69
  %81 = load ptr, ptr %13, align 8
  %82 = load i32, ptr @hf_edonkey_emule_queue_ranking, align 4
  %83 = load ptr, ptr %9, align 8
  %84 = load i32, ptr %11, align 4
  %85 = call ptr @proto_tree_add_item(ptr noundef %81, i32 noundef %82, ptr noundef %83, i32 noundef %84, i32 noundef 2, i32 noundef -2147483648)
  %86 = load i32, ptr %11, align 4
  %87 = add i32 %86, 2
  store i32 %87, ptr %11, align 4
  br label %96

88:                                               ; preds = %33
  %89 = load i8, ptr %8, align 1
  %90 = load ptr, ptr %9, align 8
  %91 = load ptr, ptr %10, align 8
  %92 = load i32, ptr %11, align 4
  %93 = load i32, ptr %12, align 4
  %94 = load ptr, ptr %13, align 8
  %95 = call i32 @dissect_edonkey_udp_message(i8 noundef zeroext %89, ptr noundef %90, ptr noundef %91, i32 noundef %92, i32 noundef %93, ptr noundef %94)
  store i32 %95, ptr %11, align 4
  br label %96

96:                                               ; preds = %88, %80, %68
  %97 = load i32, ptr %11, align 4
  store i32 %97, ptr %7, align 4
  store i32 1, ptr %16, align 4
  br label %98

98:                                               ; preds = %96, %31
  call void @llvm.lifetime.end.p0(i64 4, ptr %15) #6
  call void @llvm.lifetime.end.p0(i64 4, ptr %14) #6
  %99 = load i32, ptr %7, align 4
  ret i32 %99
}