; Function Attrs: null_pointer_is_valid sspstrong uwtable
define internal fastcc i32 @dissect_emule_udp_message(i8 noundef zeroext %0, ptr noundef %1, ptr noundef %2, i32 noundef range(i32 1, -2147483648) %3, ptr noundef %4) unnamed_addr #0 {
  %6 = tail call i32 @tvb_reported_length_remaining(ptr noundef %1, i32 noundef 2)
  %.045 = tail call i32 @llvm.smin.i32(i32 %3, i32 %6)
  %7 = icmp slt i32 %6, 1
  br i1 %7, label %49, label %8

8:                                                ; preds = %5
  %9 = add nuw i32 %.045, 2
  switch i8 %0, label %47 [
    i8 -112, label %10
    i8 -111, label %30
  ]

10:                                               ; preds = %8
  %11 = load i32, ptr @hf_edonkey_file_hash, align 4
  %12 = tail call ptr @proto_tree_add_item(ptr noundef %4, i32 noundef %11, ptr noundef %1, i32 noundef 2, i32 noundef 16, i32 noundef 0)
  %13 = icmp sgt i32 %9, 20
  br i1 %13, label %14, label %25

14:                                               ; preds = %10
  %15 = tail call zeroext i16 @tvb_get_letohs(ptr noundef %1, i32 noundef 18)
  %16 = zext i16 %15 to i32
  %17 = add nuw nsw i32 %16, 7
  %18 = lshr i32 %17, 3
  %19 = load i32, ptr @hf_edonkey_part_count, align 4
  %20 = tail call ptr @proto_tree_add_uint(ptr noundef %4, i32 noundef %19, ptr noundef %1, i32 noundef 18, i32 noundef 2, i32 noundef %16)
  %.not.i = icmp eq i16 %15, 0
  br i1 %.not.i, label %dissect_edonkey_file_status.exit, label %21

21:                                               ; preds = %14
  %22 = load i32, ptr @hf_edonkey_file_status, align 4
  %23 = tail call ptr @proto_tree_add_item(ptr noundef %4, i32 noundef %22, ptr noundef %1, i32 noundef 20, i32 noundef %18, i32 noundef 0)
  br label %dissect_edonkey_file_status.exit

dissect_edonkey_file_status.exit:                 ; preds = %14, %21
  %24 = add nuw nsw i32 %18, 20
  br label %25

25:                                               ; preds = %dissect_edonkey_file_status.exit, %10
  %.044 = phi i32 [ %24, %dissect_edonkey_file_status.exit ], [ 18, %10 ]
  %26 = icmp eq i32 %.045, %.044
  br i1 %26, label %27, label %49

27:                                               ; preds = %25
  %28 = load i32, ptr @hf_emule_source_count, align 4
  %29 = tail call ptr @proto_tree_add_item(ptr noundef %4, i32 noundef %28, ptr noundef %1, i32 noundef %.045, i32 noundef 2, i32 noundef -2147483648)
  br label %49

30:                                               ; preds = %8
  %31 = icmp sgt i32 %9, 4
  br i1 %31, label %32, label %43

32:                                               ; preds = %30
  %33 = tail call zeroext i16 @tvb_get_letohs(ptr noundef %1, i32 noundef 2)
  %34 = zext i16 %33 to i32
  %35 = add nuw nsw i32 %34, 7
  %36 = lshr i32 %35, 3
  %37 = load i32, ptr @hf_edonkey_part_count, align 4
  %38 = tail call ptr @proto_tree_add_uint(ptr noundef %4, i32 noundef %37, ptr noundef %1, i32 noundef 2, i32 noundef 2, i32 noundef %34)
  %.not.i48 = icmp eq i16 %33, 0
  br i1 %.not.i48, label %dissect_edonkey_file_status.exit50, label %39

39:                                               ; preds = %32
  %40 = load i32, ptr @hf_edonkey_file_status, align 4
  %41 = tail call ptr @proto_tree_add_item(ptr noundef %4, i32 noundef %40, ptr noundef %1, i32 noundef 4, i32 noundef %36, i32 noundef 0)
  br label %dissect_edonkey_file_status.exit50

dissect_edonkey_file_status.exit50:               ; preds = %32, %39
  %42 = add nuw nsw i32 %36, 4
  br label %43

43:                                               ; preds = %dissect_edonkey_file_status.exit50, %30
  %.2 = phi i32 [ %42, %dissect_edonkey_file_status.exit50 ], [ 2, %30 ]
  %44 = load i32, ptr @hf_edonkey_emule_queue_ranking, align 4
  %45 = tail call ptr @proto_tree_add_item(ptr noundef %4, i32 noundef %44, ptr noundef %1, i32 noundef %.2, i32 noundef 2, i32 noundef -2147483648)
  %46 = add nuw nsw i32 %.2, 2
  br label %49

47:                                               ; preds = %8
  %48 = tail call fastcc i32 @dissect_edonkey_udp_message(i8 noundef zeroext %0, ptr noundef %1, ptr noundef %2, i32 noundef %.045, ptr noundef %4)
  br label %49

49:                                               ; preds = %43, %47, %27, %25, %5
  %.0 = phi i32 [ 2, %5 ], [ %48, %47 ], [ %46, %43 ], [ %9, %27 ], [ %.044, %25 ]
  ret i32 %.0
}